; Function Attrs: mustprogress nounwind uwtable
define hidden void @_ZN19OpenColorIO_v2_5dev28ColorSpaceMenuParametersImpl17setUserCategoriesEPKc(ptr noundef nonnull align 8 dereferenceable(184) %0, ptr noundef %1) unnamed_addr #4 align 2 personality ptr @__gxx_personality_v0 {
  %.not = icmp eq ptr %1, null
  %3 = select i1 %.not, ptr @.str.2, ptr %1
  %4 = getelementptr inbounds nuw i8, ptr %0, i64 88
  %5 = getelementptr inbounds nuw i8, ptr %0, i64 96
  %6 = load i64, ptr %5, align 8, !tbaa !48
  %7 = tail call noundef i64 @strlen(ptr noundef nonnull dereferenceable(1) %3) #29
  %8 = invoke noundef nonnull align 8 dereferenceable(32) ptr @_ZNSt7__cxx1112basic_stringIcSt11char_traitsIcESaIcEE10_M_replaceEmmPKcm(ptr noundef nonnull align 8 dereferenceable(32) %4, i64 noundef 0, i64 noundef %6, ptr noundef nonnull %3, i64 noundef %7)
          to label %_ZNSt7__cxx1112basic_stringIcSt11char_traitsIcESaIcEEaSEPKc.exit unwind label %9

_ZNSt7__cxx1112basic_stringIcSt11char_traitsIcESaIcEEaSEPKc.exit: ; preds = %2
  ret void

9:                                                ; preds = %2
  %10 = landingpad { ptr, i32 }
          catch ptr null
  %11 = extractvalue { ptr, i32 } %10, 0
  tail call void @__clang_call_terminate(ptr %11) #31
  unreachable
}